target datalayout = "e-m:e-p270:32:32-p271:32:32-p272:64:64-i64:64-i128:128-f80:128-n8:16:32:64-S128"
target triple = "x86_64-pc-linux-gnu"

%struct.ssl_st = type { i32, i16, i16, ptr, ptr, ptr, ptr, ptr, i32, i32, ptr, ptr, i32, i32, ptr, ptr, ptr, ptr, ptr, ptr, ptr, ptr, i32, i32, [32 x i8], ptr, ptr, ptr, ptr, ptr, ptr, ptr, i64, %struct.crypto_ex_data_st, ptr, i32, i32, i32, i32, i16, ptr, i32, i64, ptr, ptr, ptr, ptr, ptr, ptr, i32, i32, ptr, ptr, i8, i8, i32 }
%struct.crypto_ex_data_st = type { ptr }
%struct.ssl3_state_st = type { [8 x i8], [8 x i8], [32 x i8], [32 x i8], i8, i8, %struct.ssl3_buffer_st, %struct.ssl3_buffer_st, %struct.ssl3_record_st, i8, i32, i32, i32, i32, ptr, ptr, %struct.env_md_ctx_st, %struct.env_md_ctx_st, i8, i32, [2 x i8], i32, i8, i8, ptr, ptr, ptr, %struct.anon, [64 x i8], i8, [64 x i8], i8, i32, i32, ptr, i64, ptr, i64, i8, [64 x i8] }
%struct.ssl3_buffer_st = type { ptr, i16, i16, i16 }
%struct.ssl3_record_st = type { i8, i16, ptr }
%struct.env_md_ctx_st = type { ptr, ptr, ptr, ptr }
%struct.anon = type { [64 x i8], i32, [64 x i8], i32, i64, i32, ptr, i32, i32, %union.anon, %union.anon.0, i8, i32, ptr, ptr, i64, ptr, i8, i8, i8, i8, i32, i8, ptr, i64, i8, ptr, i8, i8, i8, %struct.ssl_ecdh_ctx_st, ptr, i16 }
%union.anon = type { i32 }
%union.anon.0 = type { i16 }
%struct.ssl_ecdh_ctx_st = type { ptr, ptr }
%struct.cbb_st = type { ptr, ptr, i64, i8, i8, i8 }

; Function Attrs: nounwind uwtable
define internal i32 @ext_alpn_add_clienthello(ptr noundef %0, ptr noundef %1) #0 {
  %3 = alloca i32, align 4
  %4 = alloca ptr, align 8
  %5 = alloca ptr, align 8
  %6 = alloca %struct.cbb_st, align 8
  %7 = alloca %struct.cbb_st, align 8
  %8 = alloca i32, align 4
  store ptr %0, ptr %4, align 8, !tbaa !69
  store ptr %1, ptr %5, align 8, !tbaa !128
  %9 = load ptr, ptr %4, align 8, !tbaa !69
  %10 = getelementptr inbounds nuw %struct.ssl_st, ptr %9, i32 0, i32 48
  %11 = load ptr, ptr %10, align 8, !tbaa !202
  %12 = icmp eq ptr %11, null
  br i1 %12, label %21, label %13

13:                                               ; preds = %2
  %14 = load ptr, ptr %4, align 8, !tbaa !69
  %15 = getelementptr inbounds nuw %struct.ssl_st, ptr %14, i32 0, i32 14
  %16 = load ptr, ptr %15, align 8, !tbaa !75
  %17 = getelementptr inbounds nuw %struct.ssl3_state_st, ptr %16, i32 0, i32 5
  %18 = load i8, ptr %17, align 1, !tbaa !181
  %19 = sext i8 %18 to i32
  %20 = icmp ne i32 %19, 0
  br i1 %20, label %21, label %22

21:                                               ; preds = %13, %2
  store i32 1, ptr %3, align 4
  br label %50

22:                                               ; preds = %13
  call void @llvm.lifetime.start.p0(i64 32, ptr %6) #8
  call void @llvm.lifetime.start.p0(i64 32, ptr %7) #8
  %23 = load ptr, ptr %5, align 8, !tbaa !128
  %24 = call i32 @CBB_add_u16(ptr noundef %23, i16 noundef zeroext 16)
  %25 = icmp ne i32 %24, 0
  br i1 %25, label %26, label %47

26:                                               ; preds = %22
  %27 = load ptr, ptr %5, align 8, !tbaa !128
  %28 = call i32 @CBB_add_u16_length_prefixed(ptr noundef %27, ptr noundef %6)
  %29 = icmp ne i32 %28, 0
  br i1 %29, label %30, label %47

30:                                               ; preds = %26
  %31 = call i32 @CBB_add_u16_length_prefixed(ptr noundef %6, ptr noundef %7)
  %32 = icmp ne i32 %31, 0
  br i1 %32, label %33, label %47

33:                                               ; preds = %30
  %34 = load ptr, ptr %4, align 8, !tbaa !69
  %35 = getelementptr inbounds nuw %struct.ssl_st, ptr %34, i32 0, i32 48
  %36 = load ptr, ptr %35, align 8, !tbaa !202
  %37 = load ptr, ptr %4, align 8, !tbaa !69
  %38 = getelementptr inbounds nuw %struct.ssl_st, ptr %37, i32 0, i32 49
  %39 = load i32, ptr %38, align 8, !tbaa !203
  %40 = zext i32 %39 to i64
  %41 = call i32 @CBB_add_bytes(ptr noundef %7, ptr noundef %36, i64 noundef %40)
  %42 = icmp ne i32 %41, 0
  br i1 %42, label %43, label %47

43:                                               ; preds = %33
  %44 = load ptr, ptr %5, align 8, !tbaa !128
  %45 = call i32 @CBB_flush(ptr noundef %44)
  %46 = icmp ne i32 %45, 0
  br i1 %46, label %48, label %47

47:                                               ; preds = %43, %33, %30, %26, %22
  store i32 0, ptr %3, align 4
  store i32 1, ptr %8, align 4
  br label %49

48:                                               ; preds = %43
  store i32 1, ptr %3, align 4
  store i32 1, ptr %8, align 4
  br label %49

49:                                               ; preds = %48, %47
  call void @llvm.lifetime.end.p0(i64 32, ptr %7) #8
  call void @llvm.lifetime.end.p0(i64 32, ptr %6) #8
  br label %50

50:                                               ; preds = %49, %21
  %51 = load i32, ptr %3, align 4
  ret i32 %51
}