; Function Attrs: nounwind uwtable
define internal range(i32 0, 2) i32 @ext_alpn_add_clienthello(ptr noundef readonly captures(none) %0, ptr noundef %1) #0 {
  %3 = alloca %struct.cbb_st, align 8
  %4 = alloca %struct.cbb_st, align 8
  %5 = getelementptr inbounds nuw i8, ptr %0, i64 352
  %6 = load ptr, ptr %5, align 8, !tbaa !171
  %7 = icmp eq ptr %6, null
  br i1 %7, label %28, label %8

8:                                                ; preds = %2
  %9 = getelementptr inbounds nuw i8, ptr %0, i64 80
  %10 = load ptr, ptr %9, align 8, !tbaa !58
  %11 = getelementptr inbounds nuw i8, ptr %10, i64 81
  %12 = load i8, ptr %11, align 1, !tbaa !150
  %.not = icmp eq i8 %12, 0
  br i1 %.not, label %13, label %28

13:                                               ; preds = %8
  call void @llvm.lifetime.start.p0(i64 32, ptr nonnull %3) #21
  call void @llvm.lifetime.start.p0(i64 32, ptr nonnull %4) #21
  %14 = tail call i32 @CBB_add_u16(ptr noundef %1, i16 noundef zeroext 16) #21
  %.not7 = icmp eq i32 %14, 0
  br i1 %.not7, label %27, label %15

15:                                               ; preds = %13
  %16 = call i32 @CBB_add_u16_length_prefixed(ptr noundef %1, ptr noundef nonnull %3) #21
  %.not8 = icmp eq i32 %16, 0
  br i1 %.not8, label %27, label %17

17:                                               ; preds = %15
  %18 = call i32 @CBB_add_u16_length_prefixed(ptr noundef nonnull %3, ptr noundef nonnull %4) #21
  %.not9 = icmp eq i32 %18, 0
  br i1 %.not9, label %27, label %19

19:                                               ; preds = %17
  %20 = load ptr, ptr %5, align 8, !tbaa !171
  %21 = getelementptr inbounds nuw i8, ptr %0, i64 360
  %22 = load i32, ptr %21, align 8, !tbaa !172
  %23 = zext i32 %22 to i64
  %24 = call i32 @CBB_add_bytes(ptr noundef nonnull %4, ptr noundef %20, i64 noundef %23) #21
  %.not10 = icmp eq i32 %24, 0
  br i1 %.not10, label %27, label %25

25:                                               ; preds = %19
  %26 = call i32 @CBB_flush(ptr noundef %1) #21
  %.not11 = icmp ne i32 %26, 0
  %spec.select = zext i1 %.not11 to i32
  br label %27

27:                                               ; preds = %25, %13, %15, %17, %19
  %.1 = phi i32 [ 0, %19 ], [ 0, %17 ], [ 0, %15 ], [ 0, %13 ], [ %spec.select, %25 ]
  call void @llvm.lifetime.end.p0(i64 32, ptr nonnull %4) #21
  call void @llvm.lifetime.end.p0(i64 32, ptr nonnull %3) #21
  br label %28

28:                                               ; preds = %2, %8, %27
  %.0 = phi i32 [ %.1, %27 ], [ 1, %8 ], [ 1, %2 ]
  ret i32 %.0
}